target datalayout = "e-m:e-p270:32:32-p271:32:32-p272:64:64-i64:64-i128:128-f80:128-n8:16:32:64-S128"
target triple = "x86_64-pc-linux-gnu"

%"class.testing::Matcher" = type { %"class.testing::internal::MatcherBase" }
%"class.testing::internal::MatcherBase" = type { %"class.testing::MatcherDescriberInterface", ptr, %"union.testing::internal::MatcherBase<const std::__cxx11::basic_string<char> &>::Buffer" }
%"class.testing::MatcherDescriberInterface" = type { ptr }
%"union.testing::internal::MatcherBase<const std::__cxx11::basic_string<char> &>::Buffer" = type { ptr }
%"class.testing::internal::DeathTestImpl" = type <{ %"class.testing::internal::DeathTest", ptr, %"class.testing::Matcher", i8, [3 x i8], i32, i32, i32, i32, [4 x i8] }>
%"class.testing::internal::DeathTest" = type { ptr }
%"class.testing::internal::ForkingDeathTest" = type { %"class.testing::internal::DeathTestImpl.base", i32 }
%"class.testing::internal::DeathTestImpl.base" = type <{ %"class.testing::internal::DeathTest", ptr, %"class.testing::Matcher", i8, [3 x i8], i32, i32, i32, i32 }>

; Function Attrs: inlinehint mustprogress nounwind uwtable
define linkonce_odr hidden void @_ZN7testing25MatcherDescriberInterfaceC2Ev(ptr noundef nonnull align 8 dereferenceable(8) %0) unnamed_addr #10 comdat align 2 {
  %2 = alloca ptr, align 8
  store ptr %0, ptr %2, align 8, !tbaa !942
  %3 = load ptr, ptr %2, align 8
  store ptr getelementptr inbounds inrange(-16, 32) ({ [6 x ptr] }, ptr @_ZTVN7testing25MatcherDescriberInterfaceE, i32 0, i32 0, i32 2), ptr %3, align 8, !tbaa !27
  ret void
}

; Function Attrs: mustprogress nounwind uwtable
define linkonce_odr hidden void @_ZN7testing8internal9DeathTestD2Ev(ptr noundef nonnull align 8 dereferenceable(8) %0) unnamed_addr #6 comdat align 2 {
  %2 = alloca ptr, align 8
  store ptr %0, ptr %2, align 8, !tbaa !695
  ret void
}

; Function Attrs: mustprogress nounwind uwtable
define linkonce_odr hidden void @_ZN7testing8internal11MatcherBaseIRKNSt7__cxx1112basic_stringIcSt11char_traitsIcESaIcEEEEC2EOSA_(ptr noundef nonnull align 8 dereferenceable(24) %0, ptr noundef nonnull align 8 dereferenceable(24) %1) unnamed_addr #6 comdat align 2 {
  %3 = alloca ptr, align 8
  %4 = alloca ptr, align 8
  store ptr %0, ptr %3, align 8, !tbaa !701
  store ptr %1, ptr %4, align 8, !tbaa !701
  %5 = load ptr, ptr %3, align 8
  call void @_ZN7testing25MatcherDescriberInterfaceC2Ev(ptr noundef nonnull align 8 dereferenceable(8) %5) #3
  store ptr getelementptr inbounds inrange(-16, 32) ({ [6 x ptr] }, ptr @_ZTVN7testing8internal11MatcherBaseIRKNSt7__cxx1112basic_stringIcSt11char_traitsIcESaIcEEEEE, i32 0, i32 0, i32 2), ptr %5, align 8, !tbaa !27
  %6 = getelementptr inbounds nuw %"class.testing::internal::MatcherBase", ptr %5, i32 0, i32 1
  %7 = load ptr, ptr %4, align 8, !tbaa !701
  %8 = getelementptr inbounds nuw %"class.testing::internal::MatcherBase", ptr %7, i32 0, i32 1
  %9 = load ptr, ptr %8, align 8, !tbaa !730
  store ptr %9, ptr %6, align 8, !tbaa !730
  %10 = getelementptr inbounds nuw %"class.testing::internal::MatcherBase", ptr %5, i32 0, i32 2
  %11 = load ptr, ptr %4, align 8, !tbaa !701
  %12 = getelementptr inbounds nuw %"class.testing::internal::MatcherBase", ptr %11, i32 0, i32 2
  call void @llvm.memcpy.p0.p0.i64(ptr align 8 %10, ptr align 8 %12, i64 8, i1 false), !tbaa.struct !1528
  %13 = load ptr, ptr %4, align 8, !tbaa !701
  %14 = getelementptr inbounds nuw %"class.testing::internal::MatcherBase", ptr %13, i32 0, i32 1
  store ptr null, ptr %14, align 8, !tbaa !730
  ret void
}

; Function Attrs: mustprogress uwtable
define linkonce_odr hidden void @_ZN7testing8internal13DeathTestImplC2EPKcNS_7MatcherIRKNSt7__cxx1112basic_stringIcSt11char_traitsIcESaIcEEEEE(ptr noundef nonnull align 8 dereferenceable(60) %0, ptr noundef %1, ptr noundef %2) unnamed_addr #4 comdat align 2 personality ptr @__gxx_personality_v0 {
  %4 = alloca ptr, align 8
  %5 = alloca ptr, align 8
  %6 = alloca ptr, align 8
  %7 = alloca ptr, align 8
  %8 = alloca i32, align 4
  store ptr %0, ptr %4, align 8, !tbaa !703
  store ptr %1, ptr %5, align 8, !tbaa !8
  store ptr %2, ptr %6, align 8, !tbaa !697
  %9 = load ptr, ptr %4, align 8
  call void @_ZN7testing8internal9DeathTestC2Ev(ptr noundef nonnull align 8 dereferenceable(8) %9)
  store ptr getelementptr inbounds inrange(-16, 56) ({ [9 x ptr] }, ptr @_ZTVN7testing8internal13DeathTestImplE, i32 0, i32 0, i32 2), ptr %9, align 8, !tbaa !27
  %10 = getelementptr inbounds nuw %"class.testing::internal::DeathTestImpl", ptr %9, i32 0, i32 1
  %11 = load ptr, ptr %5, align 8, !tbaa !8
  store ptr %11, ptr %10, align 8, !tbaa !726
  %12 = getelementptr inbounds nuw %"class.testing::internal::DeathTestImpl", ptr %9, i32 0, i32 2
  invoke void @_ZN7testing7MatcherIRKNSt7__cxx1112basic_stringIcSt11char_traitsIcESaIcEEEEC2EOS9_(ptr noundef nonnull align 8 dereferenceable(24) %12, ptr noundef nonnull align 8 dereferenceable(24) %2)
          to label %13 unwind label %19

13:                                               ; preds = %3
  %14 = getelementptr inbounds nuw %"class.testing::internal::DeathTestImpl", ptr %9, i32 0, i32 3
  store i8 0, ptr %14, align 8, !tbaa !725
  %15 = getelementptr inbounds nuw %"class.testing::internal::DeathTestImpl", ptr %9, i32 0, i32 5
  store i32 -1, ptr %15, align 4, !tbaa !733
  %16 = getelementptr inbounds nuw %"class.testing::internal::DeathTestImpl", ptr %9, i32 0, i32 6
  store i32 0, ptr %16, align 8, !tbaa !717
  %17 = getelementptr inbounds nuw %"class.testing::internal::DeathTestImpl", ptr %9, i32 0, i32 7
  store i32 -1, ptr %17, align 4, !tbaa !708
  %18 = getelementptr inbounds nuw %"class.testing::internal::DeathTestImpl", ptr %9, i32 0, i32 8
  store i32 -1, ptr %18, align 8, !tbaa !724
  ret void

19:                                               ; preds = %3
  %20 = landingpad { ptr, i32 }
          cleanup
  %21 = extractvalue { ptr, i32 } %20, 0
  store ptr %21, ptr %7, align 8
  %22 = extractvalue { ptr, i32 } %20, 1
  store i32 %22, ptr %8, align 4
  call void @_ZN7testing8internal9DeathTestD2Ev(ptr noundef nonnull align 8 dereferenceable(8) %9) #3
  br label %23

23:                                               ; preds = %19
  %24 = load ptr, ptr %7, align 8
  %25 = load i32, ptr %8, align 4
  %26 = insertvalue { ptr, i32 } poison, ptr %24, 0
  %27 = insertvalue { ptr, i32 } %26, i32 %25, 1
  resume { ptr, i32 } %27
}

; Function Attrs: inlinehint mustprogress uwtable
define linkonce_odr hidden void @_ZN7testing7MatcherIRKNSt7__cxx1112basic_stringIcSt11char_traitsIcESaIcEEEEC2EOS9_(ptr noundef nonnull align 8 dereferenceable(24) %0, ptr noundef nonnull align 8 dereferenceable(24) %1) unnamed_addr #7 comdat align 2 {
  %3 = alloca ptr, align 8
  %4 = alloca ptr, align 8
  store ptr %0, ptr %3, align 8, !tbaa !697
  store ptr %1, ptr %4, align 8, !tbaa !697
  %5 = load ptr, ptr %3, align 8
  %6 = load ptr, ptr %4, align 8, !tbaa !697
  call void @_ZN7testing8internal11MatcherBaseIRKNSt7__cxx1112basic_stringIcSt11char_traitsIcESaIcEEEEC2EOSA_(ptr noundef nonnull align 8 dereferenceable(24) %5, ptr noundef nonnull align 8 dereferenceable(24) %6)
  store ptr getelementptr inbounds inrange(-16, 32) ({ [6 x ptr] }, ptr @_ZTVN7testing7MatcherIRKNSt7__cxx1112basic_stringIcSt11char_traitsIcESaIcEEEEE, i32 0, i32 0, i32 2), ptr %5, align 8, !tbaa !27
  ret void
}

; Function Attrs: mustprogress uwtable
define hidden void @_ZN7testing8internal16ForkingDeathTestC2EPKcNS_7MatcherIRKNSt7__cxx1112basic_stringIcSt11char_traitsIcESaIcEEEEE(ptr noundef nonnull align 8 dereferenceable(64) %0, ptr noundef %1, ptr noundef %2) unnamed_addr #4 align 2 personality ptr @__gxx_personality_v0 {
  %4 = alloca ptr, align 8
  %5 = alloca ptr, align 8
  %6 = alloca ptr, align 8
  %7 = alloca %"class.testing::Matcher", align 8
  %8 = alloca ptr, align 8
  %9 = alloca i32, align 4
  store ptr %0, ptr %4, align 8, !tbaa !734
  store ptr %1, ptr %5, align 8, !tbaa !8
  store ptr %2, ptr %6, align 8, !tbaa !697
  %10 = load ptr, ptr %4, align 8
  %11 = load ptr, ptr %5, align 8, !tbaa !8
  call void @_ZN7testing7MatcherIRKNSt7__cxx1112basic_stringIcSt11char_traitsIcESaIcEEEEC2EOS9_(ptr noundef nonnull align 8 dereferenceable(24) %7, ptr noundef nonnull align 8 dereferenceable(24) %2)
  invoke void @_ZN7testing8internal13DeathTestImplC2EPKcNS_7MatcherIRKNSt7__cxx1112basic_stringIcSt11char_traitsIcESaIcEEEEE(ptr noundef nonnull align 8 dereferenceable(60) %10, ptr noundef %11, ptr noundef %7)
          to label %12 unwind label %14

12:                                               ; preds = %3
  call void @_ZN7testing8internal11MatcherBaseIRKNSt7__cxx1112basic_stringIcSt11char_traitsIcESaIcEEEED2Ev(ptr noundef nonnull align 8 dereferenceable(24) %7) #3
  store ptr getelementptr inbounds inrange(-16, 56) ({ [9 x ptr] }, ptr @_ZTVN7testing8internal16ForkingDeathTestE, i32 0, i32 0, i32 2), ptr %10, align 8, !tbaa !27
  %13 = getelementptr inbounds nuw %"class.testing::internal::ForkingDeathTest", ptr %10, i32 0, i32 1
  store i32 -1, ptr %13, align 4, !tbaa !736
  ret void

14:                                               ; preds = %3
  %15 = landingpad { ptr, i32 }
          cleanup
  %16 = extractvalue { ptr, i32 } %15, 0
  store ptr %16, ptr %8, align 8
  %17 = extractvalue { ptr, i32 } %15, 1
  store i32 %17, ptr %9, align 4
  call void @_ZN7testing8internal11MatcherBaseIRKNSt7__cxx1112basic_stringIcSt11char_traitsIcESaIcEEEED2Ev(ptr noundef nonnull align 8 dereferenceable(24) %7) #3
  br label %18

18:                                               ; preds = %14
  %19 = load ptr, ptr %8, align 8
  %20 = load i32, ptr %9, align 4
  %21 = insertvalue { ptr, i32 } poison, ptr %19, 0
  %22 = insertvalue { ptr, i32 } %21, i32 %20, 1
  resume { ptr, i32 } %22
}